; ModuleID = 'source-C-CXX/18/2673.c'
source_filename = "source-C-CXX/18/2673.c"
target datalayout = "e-m:e-p270:32:32-p271:32:32-p272:64:64-i64:64-f80:128-n8:16:32:64-S128"
target triple = "x86_64-pc-linux-gnu"

@.str = private unnamed_addr constant [3 x i8] c"%s\00", align 1
@.str.1 = private unnamed_addr constant [4 x i8] c"%s \00", align 1

; Function Attrs: nounwind sspstrong uwtable
define dso_local i32 @main() local_unnamed_addr #0 {
  %1 = alloca [10000 x i8], align 16
  %2 = alloca [105 x i8], align 16
  %3 = alloca [105 x i8], align 16
  %4 = alloca [105 x i8], align 16
  %5 = getelementptr inbounds [10000 x i8], [10000 x i8]* %1, i64 0, i64 0
  call void @llvm.lifetime.start.p0i8(i64 10000, i8* nonnull %5) #6
  %6 = getelementptr inbounds [105 x i8], [105 x i8]* %2, i64 0, i64 0
  call void @llvm.lifetime.start.p0i8(i64 105, i8* nonnull %6) #6
  %7 = getelementptr inbounds [105 x i8], [105 x i8]* %3, i64 0, i64 0
  call void @llvm.lifetime.start.p0i8(i64 105, i8* nonnull %7) #6
  %8 = getelementptr inbounds [105 x i8], [105 x i8]* %4, i64 0, i64 0
  call void @llvm.lifetime.start.p0i8(i64 105, i8* nonnull %8) #6
  %9 = call i32 (i8*, ...) bitcast (i32 (...)* @gets to i32 (i8*, ...)*)(i8* nonnull %5) #6
  %10 = call i32 (i8*, ...) @__isoc99_scanf(i8* getelementptr inbounds ([3 x i8], [3 x i8]* @.str, i64 0, i64 0), i8* nonnull %7)
  %11 = call i32 (i8*, ...) @__isoc99_scanf(i8* getelementptr inbounds ([3 x i8], [3 x i8]* @.str, i64 0, i64 0), i8* nonnull %8)
  br label %12

12:                                               ; preds = %30, %0
  %13 = phi i64 [ %32, %30 ], [ 0, %0 ]
  %14 = phi i32 [ %31, %30 ], [ 0, %0 ]
  %15 = getelementptr inbounds [10000 x i8], [10000 x i8]* %1, i64 0, i64 %13
  %16 = load i8, i8* %15, align 1, !tbaa !5
  switch i8 %16, label %26 [
    i8 0, label %33
    i8 32, label %17
  ]

17:                                               ; preds = %12
  %18 = sext i32 %14 to i64
  %19 = getelementptr inbounds [105 x i8], [105 x i8]* %2, i64 0, i64 %18
  store i8 0, i8* %19, align 1, !tbaa !5
  %20 = call i32 @strcmp(i8* noundef nonnull %7, i8* noundef nonnull %6) #7
  %21 = icmp eq i32 %20, 0
  br i1 %21, label %22, label %24

22:                                               ; preds = %17
  %23 = call i32 (i8*, ...) @printf(i8* nonnull dereferenceable(1) getelementptr inbounds ([4 x i8], [4 x i8]* @.str.1, i64 0, i64 0), i8* nonnull %8)
  br label %30

24:                                               ; preds = %17
  %25 = call i32 (i8*, ...) @printf(i8* nonnull dereferenceable(1) getelementptr inbounds ([4 x i8], [4 x i8]* @.str.1, i64 0, i64 0), i8* nonnull %6)
  br label %30

26:                                               ; preds = %12
  %27 = sext i32 %14 to i64
  %28 = getelementptr inbounds [105 x i8], [105 x i8]* %2, i64 0, i64 %27
  store i8 %16, i8* %28, align 1, !tbaa !5
  %29 = add nsw i32 %14, 1
  br label %30

30:                                               ; preds = %26, %24, %22
  %31 = phi i32 [ 0, %22 ], [ 0, %24 ], [ %29, %26 ]
  %32 = add nuw i64 %13, 1
  br label %12, !llvm.loop !8

33:                                               ; preds = %12
  %34 = sext i32 %14 to i64
  %35 = getelementptr inbounds [105 x i8], [105 x i8]* %2, i64 0, i64 %34
  store i8 0, i8* %35, align 1, !tbaa !5
  %36 = call i32 @strcmp(i8* noundef nonnull %7, i8* noundef nonnull %6) #7
  %37 = icmp eq i32 %36, 0
  %38 = select i1 %37, i8* %8, i8* %6
  %39 = call i32 @puts(i8* nonnull %38)
  call void @llvm.lifetime.end.p0i8(i64 105, i8* nonnull %8) #6
  call void @llvm.lifetime.end.p0i8(i64 105, i8* nonnull %7) #6
  call void @llvm.lifetime.end.p0i8(i64 105, i8* nonnull %6) #6
  call void @llvm.lifetime.end.p0i8(i64 10000, i8* nonnull %5) #6
  ret i32 0
}

; Function Attrs: argmemonly mustprogress nofree nosync nounwind willreturn
declare void @llvm.lifetime.start.p0i8(i64 immarg, i8* nocapture) #1

declare i32 @gets(...) local_unnamed_addr #2

; Function Attrs: nofree nounwind
declare noundef i32 @__isoc99_scanf(i8* nocapture noundef readonly, ...) local_unnamed_addr #3

; Function Attrs: argmemonly mustprogress nofree nounwind readonly willreturn
declare i32 @strcmp(i8* nocapture, i8* nocapture) local_unnamed_addr #4

; Function Attrs: nofree nounwind
declare noundef i32 @printf(i8* nocapture noundef readonly, ...) local_unnamed_addr #3

; Function Attrs: argmemonly mustprogress nofree nosync nounwind willreturn
declare void @llvm.lifetime.end.p0i8(i64 immarg, i8* nocapture) #1

; Function Attrs: nofree nounwind
declare noundef i32 @puts(i8* nocapture noundef readonly) local_unnamed_addr #5


!llvm.module.flags = !{!0, !1, !2, !3}
!llvm.ident = !{!4}

!0 = !{i32 1, !"wchar_size", i32 4}
!1 = !{i32 7, !"PIC Level", i32 2}
!2 = !{i32 7, !"PIE Level", i32 2}
!3 = !{i32 7, !"uwtable", i32 1}
!4 = !{!"clang version 13.0.0"}
!5 = !{!6, !6, i64 0}
!6 = !{!"omnipotent char", !7, i64 0}
!7 = !{!"Simple C/C++ TBAA"}
!8 = distinct !{!8, !9}
!9 = !{!"llvm.loop.mustprogress"}
